target datalayout = "e-m:e-p270:32:32-p271:32:32-p272:64:64-i64:64-i128:128-f80:128-n8:16:32:64-S128"
target triple = "x86_64-pc-linux-gnu"

%struct.rb_data_type_struct = type { ptr, %struct.anon.12, ptr, ptr, i64 }
%struct.anon.12 = type { ptr, ptr, ptr, ptr, [1 x ptr] }
%struct.weakkeymap = type { ptr }

@weakkeymap_type = internal constant %struct.rb_data_type_struct { ptr @.str.27, %struct.anon.12 { ptr @wkmap_mark, ptr @wkmap_free, ptr @wkmap_memsize, ptr @wkmap_compact, [1 x ptr] zeroinitializer }, ptr null, ptr null, i64 35 }, align 8

; Function Attrs: nounwind sspstrong uwtable
define internal i64 @wkmap_getkey(i64 noundef %0, i64 noundef %1) #0 {
  %3 = alloca i64, align 8
  %4 = alloca i64, align 8
  %5 = alloca i64, align 8
  %6 = alloca ptr, align 8
  %7 = alloca i64, align 8
  %8 = alloca i32, align 4
  store i64 %0, ptr %4, align 8, !tbaa !7
  store i64 %1, ptr %5, align 8, !tbaa !7
  call void @llvm.lifetime.start.p0(i64 8, ptr %6) #15
  %9 = load i64, ptr %4, align 8, !tbaa !7
  %10 = call ptr @rb_check_typeddata(i64 noundef %9, ptr noundef @weakkeymap_type)
  store ptr %10, ptr %6, align 8, !tbaa !20
  call void @llvm.lifetime.start.p0(i64 8, ptr %7) #15
  %11 = load ptr, ptr %6, align 8, !tbaa !20
  %12 = getelementptr inbounds nuw %struct.weakkeymap, ptr %11, i32 0, i32 0
  %13 = load ptr, ptr %12, align 8, !tbaa !22
  %14 = ptrtoint ptr %5 to i64
  %15 = call i32 @rb_st_get_key(ptr noundef %13, i64 noundef %14, ptr noundef %7)
  %16 = icmp ne i32 %15, 0
  br i1 %16, label %18, label %17

17:                                               ; preds = %2
  store i64 4, ptr %3, align 8
  store i32 1, ptr %8, align 4
  br label %22

18:                                               ; preds = %2
  %19 = load i64, ptr %7, align 8, !tbaa !7
  %20 = inttoptr i64 %19 to ptr
  %21 = load i64, ptr %20, align 8, !tbaa !7
  store i64 %21, ptr %3, align 8
  store i32 1, ptr %8, align 4
  br label %22

22:                                               ; preds = %18, %17
  call void @llvm.lifetime.end.p0(i64 8, ptr %7) #15
  call void @llvm.lifetime.end.p0(i64 8, ptr %6) #15
  %23 = load i64, ptr %3, align 8
  ret i64 %23
}