; Function Attrs: nounwind sspstrong uwtable
define internal i64 @wkmap_getkey(i64 noundef %0, i64 noundef %1) #0 {
  %3 = alloca i64, align 8
  %4 = alloca i64, align 8
  store i64 %1, ptr %3, align 8, !tbaa !7
  %5 = tail call ptr @rb_check_typeddata(i64 noundef %0, ptr noundef nonnull @weakkeymap_type) #10
  call void @llvm.lifetime.start.p0(i64 8, ptr nonnull %4) #10
  %6 = load ptr, ptr %5, align 8, !tbaa !30
  %7 = ptrtoint ptr %3 to i64
  %8 = call i32 @rb_st_get_key(ptr noundef %6, i64 noundef %7, ptr noundef nonnull %4) #10
  %.not = icmp eq i32 %8, 0
  br i1 %.not, label %13, label %9

9:                                                ; preds = %2
  %10 = load i64, ptr %4, align 8, !tbaa !7
  %11 = inttoptr i64 %10 to ptr
  %12 = load i64, ptr %11, align 8, !tbaa !7
  br label %13

13:                                               ; preds = %2, %9
  %.0 = phi i64 [ %12, %9 ], [ 4, %2 ]
  call void @llvm.lifetime.end.p0(i64 8, ptr nonnull %4) #10
  ret i64 %.0
}